target datalayout = "e-m:e-p270:32:32-p271:32:32-p272:64:64-i64:64-i128:128-f80:128-n8:16:32:64-S128"
target triple = "x86_64-pc-linux-gnu"

%struct.Abc_Ntk_t_ = type { i32, i32, ptr, ptr, ptr, ptr, ptr, ptr, ptr, ptr, ptr, ptr, ptr, [11 x i32], i32, i32, i32, i32, ptr, i32, ptr, ptr, i32, i32, i32, double, i32, %struct.Vec_Int_t_, ptr, ptr, ptr, ptr, ptr, float, i32, ptr, ptr, ptr, ptr, ptr, ptr, ptr, ptr, ptr, ptr, ptr, ptr, ptr, ptr, ptr, ptr, ptr, ptr, ptr, ptr, ptr }
%struct.Vec_Int_t_ = type { i32, i32, ptr }
%struct.Abc_Obj_t_ = type { ptr, ptr, i32, i32, %struct.Vec_Int_t_, %struct.Vec_Int_t_, %union.anon, %union.anon.0 }
%union.anon = type { ptr }
%union.anon.0 = type { ptr }
%struct.Vec_Ptr_t_ = type { i32, i32, ptr }

; Function Attrs: nounwind uwtable
define internal ptr @Vec_PtrEntry(ptr noundef %0, i32 noundef %1) #0 {
  %3 = alloca ptr, align 8
  %4 = alloca i32, align 4
  store ptr %0, ptr %3, align 8
  store i32 %1, ptr %4, align 4
  %5 = load ptr, ptr %3, align 8
  %6 = getelementptr inbounds %struct.Vec_Ptr_t_, ptr %5, i32 0, i32 2
  %7 = load ptr, ptr %6, align 8
  %8 = load i32, ptr %4, align 4
  %9 = sext i32 %8 to i64
  %10 = getelementptr inbounds ptr, ptr %7, i64 %9
  %11 = load ptr, ptr %10, align 8
  ret ptr %11
}

; Function Attrs: nounwind uwtable
define internal i32 @Vec_IntCap(ptr noundef %0) #0 {
  %2 = alloca ptr, align 8
  store ptr %0, ptr %2, align 8
  %3 = load ptr, ptr %2, align 8
  %4 = getelementptr inbounds %struct.Vec_Int_t_, ptr %3, i32 0, i32 0
  %5 = load i32, ptr %4, align 8
  ret i32 %5
}

; Function Attrs: nounwind uwtable
define internal ptr @Abc_NtkObj(ptr noundef %0, i32 noundef %1) #0 {
  %3 = alloca ptr, align 8
  %4 = alloca i32, align 4
  store ptr %0, ptr %3, align 8
  store i32 %1, ptr %4, align 4
  %5 = load ptr, ptr %3, align 8
  %6 = getelementptr inbounds %struct.Abc_Ntk_t_, ptr %5, i32 0, i32 5
  %7 = load ptr, ptr %6, align 8
  %8 = load i32, ptr %4, align 4
  %9 = call ptr @Vec_PtrEntry(ptr noundef %7, i32 noundef %8)
  ret ptr %9
}

; Function Attrs: nounwind uwtable
define internal i32 @Vec_PtrSize(ptr noundef %0) #0 {
  %2 = alloca ptr, align 8
  store ptr %0, ptr %2, align 8
  %3 = load ptr, ptr %2, align 8
  %4 = getelementptr inbounds %struct.Vec_Ptr_t_, ptr %3, i32 0, i32 1
  %5 = load i32, ptr %4, align 4
  ret i32 %5
}

; Function Attrs: nounwind uwtable
define internal double @Vec_IntMemory(ptr noundef %0) #0 {
  %2 = alloca ptr, align 8
  store ptr %0, ptr %2, align 8
  %3 = load ptr, ptr %2, align 8
  %4 = icmp ne ptr %3, null
  br i1 %4, label %6, label %5

5:                                                ; preds = %1
  br label %13

6:                                                ; preds = %1
  %7 = load ptr, ptr %2, align 8
  %8 = getelementptr inbounds %struct.Vec_Int_t_, ptr %7, i32 0, i32 0
  %9 = load i32, ptr %8, align 8
  %10 = sext i32 %9 to i64
  %11 = uitofp i64 %10 to double
  %12 = call double @llvm.fmuladd.f64(double 4.000000e+00, double %11, double 1.600000e+01)
  br label %13

13:                                               ; preds = %6, %5
  %14 = phi double [ 0.000000e+00, %5 ], [ %12, %6 ]
  ret double %14
}

; Function Attrs: nounwind uwtable
define internal double @Vec_PtrMemory(ptr noundef %0) #0 {
  %2 = alloca ptr, align 8
  store ptr %0, ptr %2, align 8
  %3 = load ptr, ptr %2, align 8
  %4 = icmp ne ptr %3, null
  br i1 %4, label %6, label %5

5:                                                ; preds = %1
  br label %13

6:                                                ; preds = %1
  %7 = load ptr, ptr %2, align 8
  %8 = getelementptr inbounds %struct.Vec_Ptr_t_, ptr %7, i32 0, i32 0
  %9 = load i32, ptr %8, align 8
  %10 = sext i32 %9 to i64
  %11 = uitofp i64 %10 to double
  %12 = call double @llvm.fmuladd.f64(double 8.000000e+00, double %11, double 1.600000e+01)
  br label %13

13:                                               ; preds = %6, %5
  %14 = phi double [ 0.000000e+00, %5 ], [ %12, %6 ]
  ret double %14
}

; Function Attrs: nounwind uwtable
define internal i32 @Abc_NtkObjNum(ptr noundef %0) #0 {
  %2 = alloca ptr, align 8
  store ptr %0, ptr %2, align 8
  %3 = load ptr, ptr %2, align 8
  %4 = getelementptr inbounds %struct.Abc_Ntk_t_, ptr %3, i32 0, i32 14
  %5 = load i32, ptr %4, align 4
  ret i32 %5
}

; Function Attrs: nounwind uwtable
define double @Abc_NtkMemory(ptr noundef %0) #0 {
  %2 = alloca ptr, align 8
  %3 = alloca ptr, align 8
  %4 = alloca i32, align 4
  %5 = alloca double, align 8
  store ptr %0, ptr %2, align 8
  store double 4.560000e+02, ptr %5, align 8
  %6 = load ptr, ptr %2, align 8
  %7 = call i32 @Abc_NtkObjNum(ptr noundef %6)
  %8 = sext i32 %7 to i64
  %9 = mul i64 72, %8
  %10 = uitofp i64 %9 to double
  %11 = load double, ptr %5, align 8
  %12 = fadd double %11, %10
  store double %12, ptr %5, align 8
  %13 = load ptr, ptr %2, align 8
  %14 = getelementptr inbounds %struct.Abc_Ntk_t_, ptr %13, i32 0, i32 6
  %15 = load ptr, ptr %14, align 8
  %16 = call double @Vec_PtrMemory(ptr noundef %15)
  %17 = load double, ptr %5, align 8
  %18 = fadd double %17, %16
  store double %18, ptr %5, align 8
  %19 = load ptr, ptr %2, align 8
  %20 = getelementptr inbounds %struct.Abc_Ntk_t_, ptr %19, i32 0, i32 7
  %21 = load ptr, ptr %20, align 8
  %22 = call double @Vec_PtrMemory(ptr noundef %21)
  %23 = load double, ptr %5, align 8
  %24 = fadd double %23, %22
  store double %24, ptr %5, align 8
  %25 = load ptr, ptr %2, align 8
  %26 = getelementptr inbounds %struct.Abc_Ntk_t_, ptr %25, i32 0, i32 8
  %27 = load ptr, ptr %26, align 8
  %28 = call double @Vec_PtrMemory(ptr noundef %27)
  %29 = load double, ptr %5, align 8
  %30 = fadd double %29, %28
  store double %30, ptr %5, align 8
  %31 = load ptr, ptr %2, align 8
  %32 = getelementptr inbounds %struct.Abc_Ntk_t_, ptr %31, i32 0, i32 9
  %33 = load ptr, ptr %32, align 8
  %34 = call double @Vec_PtrMemory(ptr noundef %33)
  %35 = load double, ptr %5, align 8
  %36 = fadd double %35, %34
  store double %36, ptr %5, align 8
  %37 = load ptr, ptr %2, align 8
  %38 = getelementptr inbounds %struct.Abc_Ntk_t_, ptr %37, i32 0, i32 5
  %39 = load ptr, ptr %38, align 8
  %40 = call double @Vec_PtrMemory(ptr noundef %39)
  %41 = load double, ptr %5, align 8
  %42 = fadd double %41, %40
  store double %42, ptr %5, align 8
  %43 = load ptr, ptr %2, align 8
  %44 = getelementptr inbounds %struct.Abc_Ntk_t_, ptr %43, i32 0, i32 27
  %45 = call double @Vec_IntMemory(ptr noundef %44)
  %46 = load double, ptr %5, align 8
  %47 = fadd double %46, %45
  store double %47, ptr %5, align 8
  %48 = load ptr, ptr %2, align 8
  %49 = getelementptr inbounds %struct.Abc_Ntk_t_, ptr %48, i32 0, i32 35
  %50 = load ptr, ptr %49, align 8
  %51 = call double @Vec_IntMemory(ptr noundef %50)
  %52 = load double, ptr %5, align 8
  %53 = fadd double %52, %51
  store double %53, ptr %5, align 8
  store i32 0, ptr %4, align 4
  br label %54

54:                                               ; preds = %85, %1
  %55 = load i32, ptr %4, align 4
  %56 = load ptr, ptr %2, align 8
  %57 = getelementptr inbounds %struct.Abc_Ntk_t_, ptr %56, i32 0, i32 5
  %58 = load ptr, ptr %57, align 8
  %59 = call i32 @Vec_PtrSize(ptr noundef %58)
  %60 = icmp slt i32 %55, %59
  br i1 %60, label %61, label %65

61:                                               ; preds = %54
  %62 = load ptr, ptr %2, align 8
  %63 = load i32, ptr %4, align 4
  %64 = call ptr @Abc_NtkObj(ptr noundef %62, i32 noundef %63)
  store ptr %64, ptr %3, align 8
  br label %65

65:                                               ; preds = %61, %54
  %66 = phi i1 [ false, %54 ], [ true, %61 ]
  br i1 %66, label %67, label %88

67:                                               ; preds = %65
  %68 = load ptr, ptr %3, align 8
  %69 = icmp eq ptr %68, null
  br i1 %69, label %70, label %71

70:                                               ; preds = %67
  br label %84

71:                                               ; preds = %67
  %72 = load ptr, ptr %3, align 8
  %73 = getelementptr inbounds %struct.Abc_Obj_t_, ptr %72, i32 0, i32 4
  %74 = call i32 @Vec_IntCap(ptr noundef %73)
  %75 = load ptr, ptr %3, align 8
  %76 = getelementptr inbounds %struct.Abc_Obj_t_, ptr %75, i32 0, i32 5
  %77 = call i32 @Vec_IntCap(ptr noundef %76)
  %78 = add nsw i32 %74, %77
  %79 = sext i32 %78 to i64
  %80 = mul i64 4, %79
  %81 = uitofp i64 %80 to double
  %82 = load double, ptr %5, align 8
  %83 = fadd double %82, %81
  store double %83, ptr %5, align 8
  br label %84

84:                                               ; preds = %71, %70
  br label %85

85:                                               ; preds = %84
  %86 = load i32, ptr %4, align 4
  %87 = add nsw i32 %86, 1
  store i32 %87, ptr %4, align 4
  br label %54, !llvm.loop !4

88:                                               ; preds = %65
  %89 = load double, ptr %5, align 8
  ret double %89
}