; Function Attrs: nofree norecurse nosync nounwind memory(read, inaccessiblemem: none) uwtable
define double @Abc_NtkMemory(ptr noundef readonly captures(none) %0) local_unnamed_addr #4 {
  %2 = getelementptr i8, ptr %0, i64 140
  %.val27 = load i32, ptr %2, align 4
  %3 = sext i32 %.val27 to i64
  %4 = mul nsw i64 %3, 72
  %5 = uitofp i64 %4 to double
  %6 = fadd double %5, 4.560000e+02
  %7 = getelementptr inbounds nuw i8, ptr %0, i64 40
  %8 = load ptr, ptr %7, align 8
  %.not.i = icmp eq ptr %8, null
  br i1 %.not.i, label %Vec_PtrMemory.exit, label %9

9:                                                ; preds = %1
  %10 = load i32, ptr %8, align 8
  %11 = sext i32 %10 to i64
  %12 = uitofp i64 %11 to double
  %13 = tail call double @llvm.fmuladd.f64(double %12, double 8.000000e+00, double 1.600000e+01)
  br label %Vec_PtrMemory.exit

Vec_PtrMemory.exit:                               ; preds = %1, %9
  %14 = phi double [ %13, %9 ], [ 0.000000e+00, %1 ]
  %15 = fadd double %6, %14
  %16 = getelementptr inbounds nuw i8, ptr %0, i64 48
  %17 = load ptr, ptr %16, align 8
  %.not.i31 = icmp eq ptr %17, null
  br i1 %.not.i31, label %Vec_PtrMemory.exit32, label %18

18:                                               ; preds = %Vec_PtrMemory.exit
  %19 = load i32, ptr %17, align 8
  %20 = sext i32 %19 to i64
  %21 = uitofp i64 %20 to double
  %22 = tail call double @llvm.fmuladd.f64(double %21, double 8.000000e+00, double 1.600000e+01)
  br label %Vec_PtrMemory.exit32

Vec_PtrMemory.exit32:                             ; preds = %Vec_PtrMemory.exit, %18
  %23 = phi double [ %22, %18 ], [ 0.000000e+00, %Vec_PtrMemory.exit ]
  %24 = fadd double %15, %23
  %25 = getelementptr inbounds nuw i8, ptr %0, i64 56
  %26 = load ptr, ptr %25, align 8
  %.not.i33 = icmp eq ptr %26, null
  br i1 %.not.i33, label %Vec_PtrMemory.exit34, label %27

27:                                               ; preds = %Vec_PtrMemory.exit32
  %28 = load i32, ptr %26, align 8
  %29 = sext i32 %28 to i64
  %30 = uitofp i64 %29 to double
  %31 = tail call double @llvm.fmuladd.f64(double %30, double 8.000000e+00, double 1.600000e+01)
  br label %Vec_PtrMemory.exit34

Vec_PtrMemory.exit34:                             ; preds = %Vec_PtrMemory.exit32, %27
  %32 = phi double [ %31, %27 ], [ 0.000000e+00, %Vec_PtrMemory.exit32 ]
  %33 = fadd double %24, %32
  %34 = getelementptr inbounds nuw i8, ptr %0, i64 64
  %35 = load ptr, ptr %34, align 8
  %.not.i35 = icmp eq ptr %35, null
  br i1 %.not.i35, label %Vec_PtrMemory.exit36, label %36

36:                                               ; preds = %Vec_PtrMemory.exit34
  %37 = load i32, ptr %35, align 8
  %38 = sext i32 %37 to i64
  %39 = uitofp i64 %38 to double
  %40 = tail call double @llvm.fmuladd.f64(double %39, double 8.000000e+00, double 1.600000e+01)
  br label %Vec_PtrMemory.exit36

Vec_PtrMemory.exit36:                             ; preds = %Vec_PtrMemory.exit34, %36
  %41 = phi double [ %40, %36 ], [ 0.000000e+00, %Vec_PtrMemory.exit34 ]
  %42 = fadd double %33, %41
  %43 = getelementptr inbounds nuw i8, ptr %0, i64 32
  %44 = load ptr, ptr %43, align 8
  %.not.i37 = icmp eq ptr %44, null
  br i1 %.not.i37, label %Vec_PtrMemory.exit38, label %45

45:                                               ; preds = %Vec_PtrMemory.exit36
  %46 = load i32, ptr %44, align 8
  %47 = sext i32 %46 to i64
  %48 = uitofp i64 %47 to double
  %49 = tail call double @llvm.fmuladd.f64(double %48, double 8.000000e+00, double 1.600000e+01)
  br label %Vec_PtrMemory.exit38

Vec_PtrMemory.exit38:                             ; preds = %Vec_PtrMemory.exit36, %45
  %50 = phi double [ %49, %45 ], [ 0.000000e+00, %Vec_PtrMemory.exit36 ]
  %51 = fadd double %42, %50
  %52 = getelementptr inbounds nuw i8, ptr %0, i64 224
  %53 = load i32, ptr %52, align 8
  %54 = sext i32 %53 to i64
  %55 = uitofp i64 %54 to double
  %56 = tail call double @llvm.fmuladd.f64(double %55, double 4.000000e+00, double 1.600000e+01)
  %57 = fadd double %51, %56
  %58 = getelementptr inbounds nuw i8, ptr %0, i64 288
  %59 = load ptr, ptr %58, align 8
  %.not.i40 = icmp eq ptr %59, null
  br i1 %.not.i40, label %Vec_IntMemory.exit, label %60

60:                                               ; preds = %Vec_PtrMemory.exit38
  %61 = load i32, ptr %59, align 8
  %62 = sext i32 %61 to i64
  %63 = uitofp i64 %62 to double
  %64 = tail call double @llvm.fmuladd.f64(double %63, double 4.000000e+00, double 1.600000e+01)
  br label %Vec_IntMemory.exit

Vec_IntMemory.exit:                               ; preds = %Vec_PtrMemory.exit38, %60
  %65 = phi double [ %64, %60 ], [ 0.000000e+00, %Vec_PtrMemory.exit38 ]
  %66 = fadd double %57, %65
  %67 = getelementptr i8, ptr %44, i64 4
  %.val = load i32, ptr %67, align 4
  %68 = icmp sgt i32 %.val, 0
  br i1 %68, label %.lr.ph, label %.critedge

.lr.ph:                                           ; preds = %Vec_IntMemory.exit
  %69 = getelementptr i8, ptr %44, i64 8
  %.val28.val = load ptr, ptr %69, align 8
  %wide.trip.count = zext nneg i32 %.val to i64
  br label %70

70:                                               ; preds = %.lr.ph, %82
  %indvars.iv = phi i64 [ 0, %.lr.ph ], [ %indvars.iv.next, %82 ]
  %.042 = phi double [ %66, %.lr.ph ], [ %.1, %82 ]
  %71 = getelementptr inbounds nuw ptr, ptr %.val28.val, i64 %indvars.iv
  %72 = load ptr, ptr %71, align 8
  %73 = icmp eq ptr %72, null
  br i1 %73, label %82, label %74

74:                                               ; preds = %70
  %75 = getelementptr inbounds nuw i8, ptr %72, i64 24
  %.val29 = load i32, ptr %75, align 8
  %76 = getelementptr inbounds nuw i8, ptr %72, i64 40
  %.val30 = load i32, ptr %76, align 8
  %77 = add nsw i32 %.val30, %.val29
  %78 = sext i32 %77 to i64
  %79 = shl nsw i64 %78, 2
  %80 = uitofp i64 %79 to double
  %81 = fadd double %.042, %80
  br label %82

82:                                               ; preds = %74, %70
  %.1 = phi double [ %.042, %70 ], [ %81, %74 ]
  %indvars.iv.next = add nuw nsw i64 %indvars.iv, 1
  %exitcond.not = icmp eq i64 %indvars.iv.next, %wide.trip.count
  br i1 %exitcond.not, label %.critedge, label %70, !llvm.loop !4

.critedge:                                        ; preds = %82, %Vec_IntMemory.exit
  %.0.lcssa = phi double [ %66, %Vec_IntMemory.exit ], [ %.1, %82 ]
  ret double %.0.lcssa
}